(i__main__
Unit
p1
(dp2
S'cellnet'
p3
(lp4
(i__main__
Cell
p5
(dp6
S'weight'
p7
(lp8
F0.69999999999999996
aF0.30000000000000004
aF0.59999999999999998
aF0.10000000000000003
aF0.30000000000000004
aF0.30000000000000004
aF0.10000000000000001
aF0.10000000000000003
aF-0.20000000000000001
asba(i__main__
Cell
p9
(dp10
g7
(lp11
F-2.7755575615628914e-17
aF0
aF-0.10000000000000001
aF-0.40000000000000002
aF-0.20000000000000004
aF0.10000000000000001
aF-0.30000000000000004
aF-0.20000000000000004
aF-0.20000000000000004
asba(i__main__
Cell
p12
(dp13
g7
(lp14
F-0.59999999999999998
aF0
aF-0.30000000000000004
aF-0.20000000000000004
aF0.20000000000000001
aF0.30000000000000004
aF0
aF0.10000000000000001
aF-0.30000000000000004
asba(i__main__
Cell
p15
(dp16
g7
(lp17
F0
aF0.20000000000000001
aF0.20000000000000004
aF0.40000000000000002
aF-0.20000000000000004
aF0.20000000000000001
aF0.10000000000000001
aF-0.10000000000000001
aF-0.10000000000000003
asba(i__main__
Cell
p18
(dp19
g7
(lp20
F0.30000000000000004
aF-0.10000000000000001
aF-0.10000000000000001
aF0.40000000000000002
aF0.30000000000000004
aF1.0999999999999999
aF0.5
aF-0.20000000000000001
aF-0.10000000000000001
asba(i__main__
Cell
p21
(dp22
g7
(lp23
F0.30000000000000004
aF-0.20000000000000004
aF0.5
aF0.20000000000000004
aF-0.59999999999999998
aF0.30000000000000004
aF-0.30000000000000004
aF-0.30000000000000004
aF-0.10000000000000001
asba(i__main__
Cell
p24
(dp25
g7
(lp26
F0
aF0.10000000000000001
aF0.30000000000000004
aF-0.30000000000000004
aF0.69999999999999996
aF-0.10000000000000001
aF0.40000000000000002
aF-0.19999999999999998
aF0.40000000000000002
asba(i__main__
Cell
p27
(dp28
g7
(lp29
F0
aF-0.40000000000000002
aF-0.20000000000000001
aF0.10000000000000001
aF-0.30000000000000004
aF-0.10000000000000001
aF-0.5
aF0.20000000000000004
aF0.30000000000000004
asba(i__main__
Cell
p30
(dp31
g7
(lp32
F0
aF0
aF0.40000000000000002
aF-0.20000000000000001
aF0.40000000000000002
aF-0.30000000000000004
aF-0.40000000000000002
aF-0.10000000000000001
aF0.30000000000000004
asbasS'score'
p33
I5
sb.