(i__main__
Unit
p1
(dp2
S'cellnet'
p3
(lp4
(i__main__
Cell
p5
(dp6
S'weight'
p7
(lp8
I0
aF0.050000000000000003
aF0
aF0.050000000000000003
aI0
aF-0.050000000000000003
aF-0.050000000000000003
aF-0.050000000000000003
aI0
asba(i__main__
Cell
p9
(dp10
g7
(lp11
F0.050000000000000003
aI0
aF0
aF0
aI0
aI0
aF-0.10000000000000001
aF0.050000000000000003
aI0
asba(i__main__
Cell
p12
(dp13
g7
(lp14
I0
aF0
aF-0.15000000000000002
aF-0.10000000000000001
aF0.050000000000000003
aF0.050000000000000003
aF0.10000000000000001
aI0
aI0
asba(i__main__
Cell
p15
(dp16
g7
(lp17
F0.050000000000000003
aF0.050000000000000003
aF0
aF0
aF0
aF0.050000000000000003
aF-0.10000000000000001
aF-0.050000000000000003
aF-0.15000000000000002
asba(i__main__
Cell
p18
(dp19
g7
(lp20
I0
aI0
aF0
aF0
aF0
aF-0.050000000000000003
aI0
aI0
aI0
asba(i__main__
Cell
p21
(dp22
g7
(lp23
F0.050000000000000003
aI0
aF0.15000000000000002
aF0.050000000000000003
aF-0.10000000000000001
aF0
aF-0.050000000000000003
aI0
aI0
asba(i__main__
Cell
p24
(dp25
g7
(lp26
F0
aF0
aF0.10000000000000002
aF-0.050000000000000003
aF-0.050000000000000003
aF-0.10000000000000001
aF-0.050000000000000003
aF0.050000000000000003
aI0
asba(i__main__
Cell
p27
(dp28
g7
(lp29
F-0.050000000000000003
aF0.15000000000000002
aF0
aF-0.050000000000000003
aF-0.050000000000000003
aI0
aF0
aF0.050000000000000003
aF0
asba(i__main__
Cell
p30
(dp31
g7
(lp32
F0.10000000000000001
aF-0.050000000000000003
aF0
aF-0.10000000000000001
aF-0.10000000000000001
aF-0.050000000000000003
aI0
aI0
aF-0.050000000000000003
asbasS'score'
p33
I0
sS'lose'
p34
I0
sb.