(i__main__
Unit
p1
(dp2
S'cellnet'
p3
(lp4
(i__main__
Cell
p5
(dp6
S'weight'
p7
(lp8
F0.10000000000000002
aF0.050000000000000017
aF-1.3877787807814457e-17
aF0.20000000000000001
aF0.25
aF-0.15000000000000002
aF0.10000000000000001
aF0
aF0.10000000000000002
asba(i__main__
Cell
p9
(dp10
g7
(lp11
F0
aF-0.20000000000000001
aF-0.050000000000000003
aF-0.050000000000000017
aF-0.29999999999999999
aF0.14999999999999999
aF-0.20000000000000001
aF0.15000000000000002
aF0
asba(i__main__
Cell
p12
(dp13
g7
(lp14
F-0.29999999999999999
aF-1.3877787807814457e-17
aF-0.25
aF-0.25
aF-0.25
aF0.15000000000000002
aF0.10000000000000002
aF-0.20000000000000001
aF0.10000000000000002
asba(i__main__
Cell
p15
(dp16
g7
(lp17
F-0.10000000000000002
aF-0.20000000000000001
aF-0.29999999999999999
aF-0.29999999999999999
aF0.049999999999999989
aF0.15000000000000002
aF-0.20000000000000001
aF-0.20000000000000001
aF-0.25
asba(i__main__
Cell
p18
(dp19
g7
(lp20
F0.20000000000000001
aF0.34999999999999998
aF0.20000000000000001
aF-0.050000000000000017
aF0.15000000000000002
aF0.20000000000000001
aF-0.59999999999999998
aF-0.34999999999999998
aF0.39999999999999997
asba(i__main__
Cell
p21
(dp22
g7
(lp23
F-0.050000000000000003
aF0.15000000000000002
aF0.050000000000000017
aF0.54999999999999993
aF-0.44999999999999996
aF0.25
aF-0.20000000000000001
aF0.15000000000000002
aF-0.20000000000000001
asba(i__main__
Cell
p24
(dp25
g7
(lp26
F-0.20000000000000001
aF-0.25
aF1.3877787807814457e-17
aF0.10000000000000002
aF-0.25
aF-0.10000000000000002
aF0.10000000000000002
aF0.20000000000000001
aF-0.10000000000000002
asba(i__main__
Cell
p27
(dp28
g7
(lp29
F0.15000000000000002
aF0.10000000000000002
aF-0.050000000000000017
aF0.15000000000000002
aF0
aF-0.20000000000000001
aF0.15000000000000002
aF-0.050000000000000017
aF-0.050000000000000003
asba(i__main__
Cell
p30
(dp31
g7
(lp32
F0
aF-0.29999999999999999
aF-0.15000000000000002
aF-0.15000000000000002
aF-0.10000000000000002
aF-0.050000000000000003
aF-0.10000000000000002
aF-0.25
aF0.25
asbasS'score'
p33
I0
sS'lose'
p34
I0
sb.