(i__main__
Unit
p1
(dp2
S'cellnet'
p3
(lp4
(i__main__
Cell
p5
(dp6
S'weight'
p7
(lp8
F0.15000000000000002
aF-0.20000000000000001
aF1.4000000000000006
aF2.1500000000000004
aF1.6000000000000005
aF0.34999999999999998
aF1.1000000000000003
aF-0.75000000000000011
aF2.0500000000000007
asba(i__main__
Cell
p9
(dp10
g7
(lp11
F0.10000000000000002
aF1.5000000000000007
aF-0.20000000000000001
aF0.44999999999999996
aF0.25
aF0.25
aF-1.5500000000000007
aF1.5500000000000007
aF-1.0500000000000003
asba(i__main__
Cell
p12
(dp13
g7
(lp14
F-0.85000000000000009
aF-0.49999999999999994
aF0.20000000000000001
aF-0.75
aF0.25
aF0.90000000000000013
aF1.9000000000000008
aF-0.65000000000000002
aF0.20000000000000001
asba(i__main__
Cell
p15
(dp16
g7
(lp17
F0.34999999999999998
aF-0.8500000000000002
aF-1.2500000000000004
aF-0.80000000000000016
aF-0.20000000000000001
aF0.25
aF-0.39999999999999997
aF-0.90000000000000013
aF-1.0500000000000003
asba(i__main__
Cell
p18
(dp19
g7
(lp20
F-1.1000000000000003
aF-0.39999999999999997
aF0.29999999999999999
aF-0.29999999999999999
aF1.6000000000000005
aF-0.69999999999999996
aF-0.49999999999999994
aF-0.8500000000000002
aF-1.4500000000000006
asba(i__main__
Cell
p21
(dp22
g7
(lp23
F-1.4500000000000006
aF-1.0000000000000002
aF0.34999999999999998
aF0.85000000000000009
aF-0.44999999999999996
aF-0.29999999999999999
aF-2.0500000000000007
aF-1.0500000000000003
aF-0.049999999999999989
asba(i__main__
Cell
p24
(dp25
g7
(lp26
F0.10000000000000002
aF-1.2500000000000004
aF1.1000000000000003
aF-0.54999999999999993
aF-0.75
aF-1.6000000000000008
aF0.80000000000000016
aF0.64999999999999991
aF0.75000000000000011
asba(i__main__
Cell
p27
(dp28
g7
(lp29
F-0.15000000000000002
aF1.4000000000000006
aF-1.1000000000000003
aF-1.1500000000000004
aF-1.9500000000000008
aF-2.0500000000000007
aF-0.25
aF0.95000000000000018
aF1.5500000000000007
asba(i__main__
Cell
p30
(dp31
g7
(lp32
F1.3500000000000005
aF-0.90000000000000013
aF0.70000000000000007
aF-2.0000000000000009
aF-2.3999999999999995
aF0.44999999999999996
aF0.29999999999999999
aF0.69999999999999996
aF0.050000000000000017
asbasS'score'
p33
I0
sS'lose'
p34
I0
sb.