(i__main__
Unit
p1
(dp2
S'cellnet'
p3
(lp4
(i__main__
Cell
p5
(dp6
S'weight'
p7
(lp8
F-0.89999999999999991
aF-4.7999999999999989
aF-1.9428902930940239e-16
aF3.4000000000000017
aF4.9999999999999982
aF3.9000000000000017
aF4.4000000000000004
aF4.4000000000000004
aF5.6999999999999957
asba(i__main__
Cell
p9
(dp10
g7
(lp11
F3.9000000000000021
aF-2.0000000000000004
aF0.59999999999999998
aF1.0999999999999996
aF-8.4999999999999858
aF1.5
aF2.0000000000000004
aF-0.89999999999999991
aF1.5
asba(i__main__
Cell
p12
(dp13
g7
(lp14
F1.9000000000000004
aF3.100000000000001
aF5.3999999999999968
aF5.0999999999999979
aF2.8000000000000012
aF5.3999999999999968
aF1.3
aF7.4999999999999893
aF7.0999999999999908
asba(i__main__
Cell
p15
(dp16
g7
(lp17
F-6.2999999999999936
aF4.1000000000000014
aF0.10000000000000003
aF0.20000000000000015
aF-0.79999999999999971
aF2.4000000000000008
aF-1.7000000000000002
aF-1.2
aF1.7000000000000002
asba(i__main__
Cell
p18
(dp19
g7
(lp20
F4.8999999999999986
aF5.0999999999999979
aF3.5000000000000018
aF1.5
aF-5.4999999999999964
aF1.4000000000000001
aF-2.4000000000000008
aF-6.199999999999994
aF-4.3000000000000007
asba(i__main__
Cell
p21
(dp22
g7
(lp23
F-1.2999999999999998
aF-4.0000000000000018
aF-3.3000000000000016
aF0.80000000000000027
aF-2.2000000000000002
aF-0.10000000000000037
aF-4.4000000000000004
aF5.2999999999999972
aF-0.19999999999999982
asba(i__main__
Cell
p24
(dp25
g7
(lp26
F-4.6999999999999993
aF-0.99999999999999989
aF-0.19999999999999998
aF-0.30000000000000004
aF2.1000000000000005
aF2.4000000000000008
aF6.0999999999999943
aF-0.89999999999999969
aF0.3999999999999998
asba(i__main__
Cell
p27
(dp28
g7
(lp29
F1.2999999999999998
aF-0.59999999999999976
aF-2.0000000000000004
aF-0.89999999999999969
aF-3.8000000000000016
aF1.0999999999999999
aF1.3999999999999999
aF0.70000000000000018
aF4.3000000000000007
asba(i__main__
Cell
p30
(dp31
g7
(lp32
F-0.79999999999999971
aF-3.6000000000000019
aF-5.2999999999999972
aF-0.099999999999999811
aF4.3000000000000007
aF1.1999999999999997
aF0.49999999999999978
aF-0.89999999999999969
aF-3.5000000000000013
asbasS'score'
p33
I10
sb.