(lp1
(lp2
F0.46127230883551473
aF0.42632942627336889
aF0.37318478627684371
aF0.27489027913735797
aF-0.094264184341875806
aF-0.41447732241342683
aF0.050651954318579266
aF-0.11812644099293747
aF0.66830691777512541
aF-0.47671846305950927
aF0.7145100092304727
aF0.61123247482632792
aa(lp3
F-0.034656678138305634
aF0.77595305683222959
aF0.54703128164085246
aF0.30445440606969409
aF-0.84403503082759368
aF0.7044982278608285
aF0.023554514839591562
aF0.60612349086938877
aF0.11719423037921108
aF-0.70826096928977733
aF-0.34404214102607256
aF-0.90447921844904211
aa(lp4
F-0.32096842308759965
aF0.63187367149024509
aF-0.78420540717153342
aF0.77020036301524641
aF0.71832666299565762
aF0.35242374151857492
aF0.7853586859101177
aF0.85413341568150736
aF-0.90925096438373221
aF-0.22901947125137934
aF0.93370682872597188
aF-0.9073636515663801
aa(lp5
F-0.10025365204570134
aF0.37219124067410425
aF0.46800920315720562
aF0.97926959101963873
aF0.31196475700252746
aF-0.13725827403948765
aF0.94965546148907998
aF-0.27333072225442945
aF0.14856908988927864
aF0.6182600048642235
aF0.90860410138551873
aF-0.020215624503823519
aaF0.98499999999999999
a.